; ModuleID = '3301.c'
source_filename = "3301.c"
target datalayout = "e-m:e-p270:32:32-p271:32:32-p272:64:64-i64:64-f80:128-n8:16:32:64-S128"
target triple = "x86_64-pc-linux-gnu"

@.str = private unnamed_addr constant [3 x i8] c"%d\00", align 1
@.str.1 = private unnamed_addr constant [4 x i8] c"%d\0A\00", align 1

; Function Attrs: noinline nounwind uwtable
define dso_local i32 @main() #0 {
  %1 = alloca i32, align 4
  %2 = alloca i32, align 4
  %3 = alloca i32, align 4
  %4 = alloca i32, align 4
  %5 = alloca i32, align 4
  store i32 0, i32* %1, align 4
  store i32 0, i32* %5, align 4
  %6 = call i32 (i8*, ...) @__isoc99_scanf(i8* getelementptr inbounds ([3 x i8], [3 x i8]* @.str, i64 0, i64 0), i32* %4)
  store i32 1, i32* %2, align 4
  br label %7

7:                                                ; preds = %45, %0
  %8 = load i32, i32* %2, align 4
  %9 = load i32, i32* %4, align 4
  %10 = icmp sle i32 %8, %9
  br i1 %10, label %11, label %48

11:                                               ; preds = %7
  %12 = load i32, i32* %2, align 4
  %13 = srem i32 %12, 100
  %14 = icmp eq i32 %13, 0
  br i1 %14, label %15, label %16

15:                                               ; preds = %11
  br label %45

16:                                               ; preds = %11
  %17 = load i32, i32* %2, align 4
  %18 = icmp slt i32 1000, %17
  br i1 %18, label %19, label %23

19:                                               ; preds = %16
  %20 = load i32, i32* %2, align 4
  %21 = icmp sgt i32 1010, %20
  br i1 %21, label %22, label %23

22:                                               ; preds = %19
  br label %45

23:                                               ; preds = %19, %16
  %24 = load i32, i32* %2, align 4
  %25 = sdiv i32 %24, 10
  store i32 %25, i32* %3, align 4
  %26 = load i32, i32* %2, align 4
  %27 = load i32, i32* %3, align 4
  %28 = mul nsw i32 %27, 10
  %29 = sub nsw i32 %26, %28
  %30 = srem i32 %29, 100
  %31 = icmp eq i32 %30, 0
  br i1 %31, label %32, label %39

32:                                               ; preds = %23
  %33 = load i32, i32* %2, align 4
  %34 = load i32, i32* %3, align 4
  %35 = mul nsw i32 %34, 10
  %36 = sub nsw i32 %33, %35
  %37 = icmp ne i32 %36, 0
  br i1 %37, label %38, label %39

38:                                               ; preds = %32
  br label %45

39:                                               ; preds = %32, %23
  %40 = load i32, i32* %2, align 4
  %41 = load i32, i32* %2, align 4
  %42 = mul nsw i32 %40, %41
  %43 = load i32, i32* %5, align 4
  %44 = add nsw i32 %43, %42
  store i32 %44, i32* %5, align 4
  br label %45

45:                                               ; preds = %39, %38, %22, %15
  %46 = load i32, i32* %2, align 4
  %47 = add nsw i32 %46, 1
  store i32 %47, i32* %2, align 4
  br label %7

48:                                               ; preds = %7
  %49 = load i32, i32* %5, align 4
  %50 = call i32 (i8*, ...) @printf(i8* getelementptr inbounds ([4 x i8], [4 x i8]* @.str.1, i64 0, i64 0), i32 %49)
  ret i32 0
}

declare dso_local i32 @__isoc99_scanf(i8*, ...) #1

declare dso_local i32 @printf(i8*, ...) #1


!llvm.module.flags = !{!0}
!llvm.ident = !{!1}

!0 = !{i32 1, !"wchar_size", i32 4}
!1 = !{!"clang version 10.0.0-4ubuntu1 "}
